; Function Attrs: mustprogress uwtable
define noundef zeroext i1 @_ZN5Ipopt22LowRankAugSystemSolver15IncreaseQualityEv(ptr noundef nonnull readonly align 8 captures(none) dereferenceable(204) %0) unnamed_addr #6 align 2 {
  %2 = getelementptr inbounds nuw i8, ptr %0, i64 56
  %3 = load ptr, ptr %2, align 8, !tbaa !29
  %4 = load ptr, ptr %3, align 8, !tbaa !16
  %5 = getelementptr inbounds nuw i8, ptr %4, i64 56
  %6 = load ptr, ptr %5, align 8
  %7 = tail call noundef zeroext i1 %6(ptr noundef nonnull align 8 dereferenceable(49) %3)
  ret i1 %7
}